target datalayout = "e-m:e-p270:32:32-p271:32:32-p272:64:64-i64:64-i128:128-f80:128-n8:16:32:64-S128"
target triple = "x86_64-pc-linux-gnu"

%struct.zlib_writer = type { %struct.Curl_cwriter, i32, [16384 x i8], i32, %struct.z_stream_s }
%struct.Curl_cwriter = type { ptr, ptr, ptr, i32 }
%struct.z_stream_s = type { ptr, i32, i64, ptr, i32, i64, ptr, ptr, ptr, ptr, ptr, i32, i64, i64 }

; Function Attrs: nounwind uwtable
define internal i32 @deflate_do_write(ptr noundef %0, ptr noundef %1, i32 noundef %2, ptr noundef %3, i64 noundef %4) #0 {
  %6 = alloca i32, align 4
  %7 = alloca ptr, align 8
  %8 = alloca ptr, align 8
  %9 = alloca i32, align 4
  %10 = alloca ptr, align 8
  %11 = alloca i64, align 8
  %12 = alloca ptr, align 8
  %13 = alloca ptr, align 8
  %14 = alloca i32, align 4
  store ptr %0, ptr %7, align 8, !tbaa !20
  store ptr %1, ptr %8, align 8, !tbaa !98
  store i32 %2, ptr %9, align 4, !tbaa !22
  store ptr %3, ptr %10, align 8, !tbaa !3
  store i64 %4, ptr %11, align 8, !tbaa !8
  call void @llvm.lifetime.start.p0(i64 8, ptr %12) #5
  %15 = load ptr, ptr %8, align 8, !tbaa !98
  store ptr %15, ptr %12, align 8, !tbaa !103
  call void @llvm.lifetime.start.p0(i64 8, ptr %13) #5
  %16 = load ptr, ptr %12, align 8, !tbaa !103
  %17 = getelementptr inbounds nuw %struct.zlib_writer, ptr %16, i32 0, i32 4
  store ptr %17, ptr %13, align 8, !tbaa !105
  %18 = load i32, ptr %9, align 4, !tbaa !22
  %19 = and i32 %18, 1
  %20 = icmp ne i32 %19, 0
  br i1 %20, label %21, label %24

21:                                               ; preds = %5
  %22 = load i64, ptr %11, align 8, !tbaa !8
  %23 = icmp ne i64 %22, 0
  br i1 %23, label %33, label %24

24:                                               ; preds = %21, %5
  %25 = load ptr, ptr %7, align 8, !tbaa !20
  %26 = load ptr, ptr %8, align 8, !tbaa !98
  %27 = getelementptr inbounds nuw %struct.Curl_cwriter, ptr %26, i32 0, i32 1
  %28 = load ptr, ptr %27, align 8, !tbaa !114
  %29 = load i32, ptr %9, align 4, !tbaa !22
  %30 = load ptr, ptr %10, align 8, !tbaa !3
  %31 = load i64, ptr %11, align 8, !tbaa !8
  %32 = call i32 @Curl_cwriter_write(ptr noundef %25, ptr noundef %28, i32 noundef %29, ptr noundef %30, i64 noundef %31)
  store i32 %32, ptr %6, align 4
  store i32 1, ptr %14, align 4
  br label %54

33:                                               ; preds = %21
  %34 = load ptr, ptr %10, align 8, !tbaa !3
  %35 = load ptr, ptr %13, align 8, !tbaa !105
  %36 = getelementptr inbounds nuw %struct.z_stream_s, ptr %35, i32 0, i32 0
  store ptr %34, ptr %36, align 8, !tbaa !115
  %37 = load i64, ptr %11, align 8, !tbaa !8
  %38 = trunc i64 %37 to i32
  %39 = load ptr, ptr %13, align 8, !tbaa !105
  %40 = getelementptr inbounds nuw %struct.z_stream_s, ptr %39, i32 0, i32 1
  store i32 %38, ptr %40, align 8, !tbaa !116
  %41 = load ptr, ptr %12, align 8, !tbaa !103
  %42 = getelementptr inbounds nuw %struct.zlib_writer, ptr %41, i32 0, i32 1
  %43 = load i32, ptr %42, align 8, !tbaa !111
  %44 = icmp eq i32 %43, 3
  br i1 %44, label %45, label %49

45:                                               ; preds = %33
  %46 = load ptr, ptr %7, align 8, !tbaa !20
  %47 = load ptr, ptr %12, align 8, !tbaa !103
  %48 = call i32 @process_trailer(ptr noundef %46, ptr noundef %47)
  store i32 %48, ptr %6, align 4
  store i32 1, ptr %14, align 4
  br label %54

49:                                               ; preds = %33
  %50 = load ptr, ptr %7, align 8, !tbaa !20
  %51 = load ptr, ptr %8, align 8, !tbaa !98
  %52 = load i32, ptr %9, align 4, !tbaa !22
  %53 = call i32 @inflate_stream(ptr noundef %50, ptr noundef %51, i32 noundef %52, i32 noundef 2)
  store i32 %53, ptr %6, align 4
  store i32 1, ptr %14, align 4
  br label %54

54:                                               ; preds = %49, %45, %24
  call void @llvm.lifetime.end.p0(i64 8, ptr %13) #5
  call void @llvm.lifetime.end.p0(i64 8, ptr %12) #5
  %55 = load i32, ptr %6, align 4
  ret i32 %55
}