; Function Attrs: nounwind uwtable
define internal i32 @deflate_do_write(ptr noundef %0, ptr noundef %1, i32 noundef %2, ptr noundef %3, i64 noundef %4) #0 {
  %6 = and i32 %2, 1
  %7 = icmp ne i32 %6, 0
  %8 = icmp ne i64 %4, 0
  %or.cond = and i1 %7, %8
  br i1 %or.cond, label %13, label %9

9:                                                ; preds = %5
  %10 = getelementptr inbounds nuw i8, ptr %1, i64 8
  %11 = load ptr, ptr %10, align 8, !tbaa !98
  %12 = tail call i32 @Curl_cwriter_write(ptr noundef %0, ptr noundef %11, i32 noundef %2, ptr noundef %3, i64 noundef %4) #8
  br label %24

13:                                               ; preds = %5
  %14 = getelementptr inbounds nuw i8, ptr %1, i64 16424
  store ptr %3, ptr %14, align 8, !tbaa !99
  %15 = trunc i64 %4 to i32
  %16 = getelementptr inbounds nuw i8, ptr %1, i64 16432
  store i32 %15, ptr %16, align 8, !tbaa !100
  %17 = getelementptr inbounds nuw i8, ptr %1, i64 32
  %18 = load i32, ptr %17, align 8, !tbaa !95
  %19 = icmp eq i32 %18, 3
  br i1 %19, label %20, label %22

20:                                               ; preds = %13
  %21 = tail call fastcc i32 @process_trailer(ptr noundef %0, ptr noundef nonnull %1)
  br label %24

22:                                               ; preds = %13
  %23 = tail call fastcc i32 @inflate_stream(ptr noundef %0, ptr noundef nonnull %1, i32 noundef %2, i32 noundef 2)
  br label %24

24:                                               ; preds = %22, %20, %9
  %.0 = phi i32 [ %21, %20 ], [ %23, %22 ], [ %12, %9 ]
  ret i32 %.0
}